target datalayout = "e-m:e-p270:32:32-p271:32:32-p272:64:64-i64:64-i128:128-f80:128-n8:16:32:64-S128"
target triple = "x86_64-pc-linux-gnu"

%struct.pmix_proc = type { [256 x i8], i32 }
%struct.pmix_list_t = type { %struct.pmix_object_t, %struct.pmix_list_item_t, i64 }
%struct.pmix_object_t = type { %union.pthread_mutex_t, ptr, i32, %struct.pmix_tma }
%union.pthread_mutex_t = type { %struct.__pthread_mutex_s }
%struct.__pthread_mutex_s = type { i32, i32, i32, i32, i32, i16, i16, %struct.__pthread_internal_list }
%struct.__pthread_internal_list = type { ptr, ptr }
%struct.pmix_tma = type { ptr, ptr, ptr, ptr, ptr, ptr, ptr, ptr }
%struct.pmix_list_item_t = type { %struct.pmix_object_t, ptr, ptr, i32 }
%struct.prte_proc_t = type { %struct.pmix_list_item_t, %struct.pmix_proc, i32, i32, i16, i16, i32, i16, i32, i32, i32, i32, ptr, ptr, ptr, ptr, i16, %struct.pmix_list_t }

@.str.2 = private unnamed_addr constant [37 x i8] c"PMIX ERROR: %s in file %s at line %d\00", align 1
@.str.3 = private unnamed_addr constant [15 x i8] c"errmgr_prted.c\00", align 1

; Function Attrs: nounwind uwtable
define internal i32 @pack_state_for_proc(ptr noundef %0, ptr noundef %1) #0 {
  %3 = alloca i32, align 4
  %4 = alloca ptr, align 8
  %5 = alloca ptr, align 8
  %6 = alloca i32, align 4
  %7 = alloca i32, align 4
  store ptr %0, ptr %4, align 8, !tbaa !50
  store ptr %1, ptr %5, align 8, !tbaa !65
  call void @llvm.lifetime.start.p0(i64 4, ptr %6) #12
  %8 = load ptr, ptr %4, align 8, !tbaa !50
  %9 = load ptr, ptr %5, align 8, !tbaa !65
  %10 = getelementptr inbounds nuw %struct.prte_proc_t, ptr %9, i32 0, i32 1
  %11 = getelementptr inbounds nuw %struct.pmix_proc, ptr %10, i32 0, i32 1
  %12 = call i32 @PMIx_Data_pack(ptr noundef null, ptr noundef %8, ptr noundef %11, i32 noundef 1, i16 noundef zeroext 40)
  store i32 %12, ptr %6, align 4, !tbaa !9
  %13 = load i32, ptr %6, align 4, !tbaa !9
  %14 = icmp ne i32 0, %13
  br i1 %14, label %15, label %26

15:                                               ; preds = %2
  br label %16

16:                                               ; preds = %15
  %17 = load i32, ptr %6, align 4, !tbaa !9
  %18 = icmp ne i32 -2, %17
  br i1 %18, label %19, label %22

19:                                               ; preds = %16
  %20 = load i32, ptr %6, align 4, !tbaa !9
  %21 = call ptr @PMIx_Error_string(i32 noundef %20)
  call void (i32, ptr, ...) @pmix_output(i32 noundef 0, ptr noundef @.str.2, ptr noundef %21, ptr noundef @.str.3, i32 noundef 729)
  br label %22

22:                                               ; preds = %19, %16
  br label %23

23:                                               ; preds = %22
  br label %24

24:                                               ; preds = %23
  %25 = load i32, ptr %6, align 4, !tbaa !9
  store i32 %25, ptr %3, align 4
  store i32 1, ptr %7, align 4
  br label %81

26:                                               ; preds = %2
  %27 = load ptr, ptr %4, align 8, !tbaa !50
  %28 = load ptr, ptr %5, align 8, !tbaa !65
  %29 = getelementptr inbounds nuw %struct.prte_proc_t, ptr %28, i32 0, i32 3
  %30 = call i32 @PMIx_Data_pack(ptr noundef null, ptr noundef %27, ptr noundef %29, i32 noundef 1, i16 noundef zeroext 5)
  store i32 %30, ptr %6, align 4, !tbaa !9
  %31 = load i32, ptr %6, align 4, !tbaa !9
  %32 = icmp ne i32 0, %31
  br i1 %32, label %33, label %44

33:                                               ; preds = %26
  br label %34

34:                                               ; preds = %33
  %35 = load i32, ptr %6, align 4, !tbaa !9
  %36 = icmp ne i32 -2, %35
  br i1 %36, label %37, label %40

37:                                               ; preds = %34
  %38 = load i32, ptr %6, align 4, !tbaa !9
  %39 = call ptr @PMIx_Error_string(i32 noundef %38)
  call void (i32, ptr, ...) @pmix_output(i32 noundef 0, ptr noundef @.str.2, ptr noundef %39, ptr noundef @.str.3, i32 noundef 735)
  br label %40

40:                                               ; preds = %37, %34
  br label %41

41:                                               ; preds = %40
  br label %42

42:                                               ; preds = %41
  %43 = load i32, ptr %6, align 4, !tbaa !9
  store i32 %43, ptr %3, align 4
  store i32 1, ptr %7, align 4
  br label %81

44:                                               ; preds = %26
  %45 = load ptr, ptr %4, align 8, !tbaa !50
  %46 = load ptr, ptr %5, align 8, !tbaa !65
  %47 = getelementptr inbounds nuw %struct.prte_proc_t, ptr %46, i32 0, i32 9
  %48 = call i32 @PMIx_Data_pack(ptr noundef null, ptr noundef %45, ptr noundef %47, i32 noundef 1, i16 noundef zeroext 14)
  store i32 %48, ptr %6, align 4, !tbaa !9
  %49 = load i32, ptr %6, align 4, !tbaa !9
  %50 = icmp ne i32 0, %49
  br i1 %50, label %51, label %62

51:                                               ; preds = %44
  br label %52

52:                                               ; preds = %51
  %53 = load i32, ptr %6, align 4, !tbaa !9
  %54 = icmp ne i32 -2, %53
  br i1 %54, label %55, label %58

55:                                               ; preds = %52
  %56 = load i32, ptr %6, align 4, !tbaa !9
  %57 = call ptr @PMIx_Error_string(i32 noundef %56)
  call void (i32, ptr, ...) @pmix_output(i32 noundef 0, ptr noundef @.str.2, ptr noundef %57, ptr noundef @.str.3, i32 noundef 741)
  br label %58

58:                                               ; preds = %55, %52
  br label %59

59:                                               ; preds = %58
  br label %60

60:                                               ; preds = %59
  %61 = load i32, ptr %6, align 4, !tbaa !9
  store i32 %61, ptr %3, align 4
  store i32 1, ptr %7, align 4
  br label %81

62:                                               ; preds = %44
  %63 = load ptr, ptr %4, align 8, !tbaa !50
  %64 = load ptr, ptr %5, align 8, !tbaa !65
  %65 = getelementptr inbounds nuw %struct.prte_proc_t, ptr %64, i32 0, i32 10
  %66 = call i32 @PMIx_Data_pack(ptr noundef null, ptr noundef %63, ptr noundef %65, i32 noundef 1, i16 noundef zeroext 9)
  store i32 %66, ptr %6, align 4, !tbaa !9
  %67 = load i32, ptr %6, align 4, !tbaa !9
  %68 = icmp ne i32 0, %67
  br i1 %68, label %69, label %80

69:                                               ; preds = %62
  br label %70

70:                                               ; preds = %69
  %71 = load i32, ptr %6, align 4, !tbaa !9
  %72 = icmp ne i32 -2, %71
  br i1 %72, label %73, label %76

73:                                               ; preds = %70
  %74 = load i32, ptr %6, align 4, !tbaa !9
  %75 = call ptr @PMIx_Error_string(i32 noundef %74)
  call void (i32, ptr, ...) @pmix_output(i32 noundef 0, ptr noundef @.str.2, ptr noundef %75, ptr noundef @.str.3, i32 noundef 747)
  br label %76

76:                                               ; preds = %73, %70
  br label %77

77:                                               ; preds = %76
  br label %78

78:                                               ; preds = %77
  %79 = load i32, ptr %6, align 4, !tbaa !9
  store i32 %79, ptr %3, align 4
  store i32 1, ptr %7, align 4
  br label %81

80:                                               ; preds = %62
  store i32 0, ptr %3, align 4
  store i32 1, ptr %7, align 4
  br label %81

81:                                               ; preds = %80, %78, %60, %42, %24
  call void @llvm.lifetime.end.p0(i64 4, ptr %6) #12
  %82 = load i32, ptr %3, align 4
  ret i32 %82
}