; Function Attrs: nounwind uwtable
define internal fastcc noundef i32 @pack_state_for_proc(ptr noundef %0, ptr noundef nonnull %1) unnamed_addr #0 {
  %3 = getelementptr inbounds nuw i8, ptr %1, i64 400
  %4 = tail call i32 @PMIx_Data_pack(ptr noundef null, ptr noundef %0, ptr noundef nonnull %3, i32 noundef 1, i16 noundef zeroext 40) #13
  switch i32 %4, label %.sink.split [
    i32 0, label %5
    i32 -2, label %15
  ]

5:                                                ; preds = %2
  %6 = getelementptr inbounds nuw i8, ptr %1, i64 408
  %7 = tail call i32 @PMIx_Data_pack(ptr noundef null, ptr noundef %0, ptr noundef nonnull %6, i32 noundef 1, i16 noundef zeroext 5) #13
  switch i32 %7, label %.sink.split [
    i32 0, label %8
    i32 -2, label %15
  ]

8:                                                ; preds = %5
  %9 = getelementptr inbounds nuw i8, ptr %1, i64 428
  %10 = tail call i32 @PMIx_Data_pack(ptr noundef null, ptr noundef %0, ptr noundef nonnull %9, i32 noundef 1, i16 noundef zeroext 14) #13
  switch i32 %10, label %.sink.split [
    i32 0, label %11
    i32 -2, label %15
  ]

11:                                               ; preds = %8
  %12 = getelementptr inbounds nuw i8, ptr %1, i64 432
  %13 = tail call i32 @PMIx_Data_pack(ptr noundef null, ptr noundef %0, ptr noundef nonnull %12, i32 noundef 1, i16 noundef zeroext 9) #13
  switch i32 %13, label %.sink.split [
    i32 0, label %15
    i32 -2, label %15
  ]

.sink.split:                                      ; preds = %11, %8, %5, %2
  %.sink36 = phi i32 [ %4, %2 ], [ %7, %5 ], [ %10, %8 ], [ %13, %11 ]
  %.sink35 = phi i32 [ 729, %2 ], [ 735, %5 ], [ 741, %8 ], [ 747, %11 ]
  %14 = tail call ptr @PMIx_Error_string(i32 noundef %.sink36) #13
  tail call void (i32, ptr, ...) @pmix_output(i32 noundef 0, ptr noundef nonnull @.str.2, ptr noundef %14, ptr noundef nonnull @.str.3, i32 noundef %.sink35) #13
  br label %15

15:                                               ; preds = %.sink.split, %11, %11, %8, %5, %2
  %.0 = phi i32 [ %4, %2 ], [ %7, %5 ], [ %10, %8 ], [ %13, %11 ], [ %13, %11 ], [ %.sink36, %.sink.split ]
  ret i32 %.0
}